target datalayout = "e-m:e-p270:32:32-p271:32:32-p272:64:64-i64:64-i128:128-f80:128-n8:16:32:64-S128"
target triple = "x86_64-unknown-linux-gnu"

%"class.spacer::pred_transformer::legacy_frames" = type { ptr, %class.vector, %class.obj_map, %class.ref_vector }
%class.vector = type { ptr }
%class.obj_map = type { %class.core_hashtable }
%class.core_hashtable = type <{ ptr, i32, i32, i32, [4 x i8] }>
%class.ref_vector = type { %class.ref_vector_core }
%class.ref_vector_core = type { %class.ref_manager_wrapper, %class.ptr_vector }
%class.ref_manager_wrapper = type { ptr }
%class.ptr_vector = type { %class.vector.0 }
%class.vector.0 = type { ptr }
%"struct.obj_map<expr, unsigned int>::key_data" = type <{ ptr, i32, [4 x i8] }>
%"class.core_hashtable<obj_map<expr, unsigned int>::obj_map_entry, obj_hash<obj_map<expr, unsigned int>::key_data>, default_eq<obj_map<expr, unsigned int>::key_data>>::iterator" = type { ptr, ptr }
%"class.obj_map<expr, unsigned int>::obj_map_entry" = type { %"struct.obj_map<expr, unsigned int>::key_data" }

; Function Attrs: mustprogress nounwind uwtable
define linkonce_odr hidden noundef zeroext i1 @_ZNK7obj_mapI4exprjE13obj_map_entry7is_usedEv(ptr noundef nonnull align 8 dereferenceable(16) %this) #5 comdat align 2 {
entry:
  %this.addr = alloca ptr, align 8
  store ptr %this, ptr %this.addr, align 8
  %this1 = load ptr, ptr %this.addr, align 8
  %m_data = getelementptr inbounds %"class.obj_map<expr, unsigned int>::obj_map_entry", ptr %this1, i32 0, i32 0
  %m_key = getelementptr inbounds %"struct.obj_map<expr, unsigned int>::key_data", ptr %m_data, i32 0, i32 0
  %0 = load ptr, ptr %m_key, align 8
  %cmp = icmp ne ptr %0, null
  br i1 %cmp, label %land.rhs, label %land.end

land.rhs:                                         ; preds = %entry
  %m_data2 = getelementptr inbounds %"class.obj_map<expr, unsigned int>::obj_map_entry", ptr %this1, i32 0, i32 0
  %m_key3 = getelementptr inbounds %"struct.obj_map<expr, unsigned int>::key_data", ptr %m_data2, i32 0, i32 0
  %1 = load ptr, ptr %m_key3, align 8
  %cmp4 = icmp ne ptr %1, inttoptr (i64 1 to ptr)
  br label %land.end

land.end:                                         ; preds = %land.rhs, %entry
  %2 = phi i1 [ false, %entry ], [ %cmp4, %land.rhs ]
  ret i1 %2
}

; Function Attrs: mustprogress nounwind uwtable
define linkonce_odr hidden noundef nonnull align 8 dereferenceable(12) ptr @_ZN7obj_mapI4exprjE13obj_map_entry8get_dataEv(ptr noundef nonnull align 8 dereferenceable(16) %this) #5 comdat align 2 {
entry:
  %this.addr = alloca ptr, align 8
  store ptr %this, ptr %this.addr, align 8
  %this1 = load ptr, ptr %this.addr, align 8
  %m_data = getelementptr inbounds %"class.obj_map<expr, unsigned int>::obj_map_entry", ptr %this1, i32 0, i32 0
  ret ptr %m_data
}

; Function Attrs: mustprogress uwtable
define linkonce_odr hidden void @_ZN14core_hashtableIN7obj_mapI4exprjE13obj_map_entryE8obj_hashINS2_8key_dataEE10default_eqIS5_EE8iteratorC2EPS3_SB_(ptr noundef nonnull align 8 dereferenceable(16) %this, ptr noundef %start, ptr noundef %end) unnamed_addr #4 comdat align 2 {
entry:
  %this.addr = alloca ptr, align 8
  %start.addr = alloca ptr, align 8
  %end.addr = alloca ptr, align 8
  store ptr %this, ptr %this.addr, align 8
  store ptr %start, ptr %start.addr, align 8
  store ptr %end, ptr %end.addr, align 8
  %this1 = load ptr, ptr %this.addr, align 8
  %m_curr = getelementptr inbounds %"class.core_hashtable<obj_map<expr, unsigned int>::obj_map_entry, obj_hash<obj_map<expr, unsigned int>::key_data>, default_eq<obj_map<expr, unsigned int>::key_data>>::iterator", ptr %this1, i32 0, i32 0
  %0 = load ptr, ptr %start.addr, align 8
  store ptr %0, ptr %m_curr, align 8
  %m_end = getelementptr inbounds %"class.core_hashtable<obj_map<expr, unsigned int>::obj_map_entry, obj_hash<obj_map<expr, unsigned int>::key_data>, default_eq<obj_map<expr, unsigned int>::key_data>>::iterator", ptr %this1, i32 0, i32 1
  %1 = load ptr, ptr %end.addr, align 8
  store ptr %1, ptr %m_end, align 8
  call void @_ZN14core_hashtableIN7obj_mapI4exprjE13obj_map_entryE8obj_hashINS2_8key_dataEE10default_eqIS5_EE8iterator12move_to_usedEv(ptr noundef nonnull align 8 dereferenceable(16) %this1)
  ret void
}

; Function Attrs: mustprogress nounwind uwtable
define linkonce_odr hidden void @_ZN14core_hashtableIN7obj_mapI4exprjE13obj_map_entryE8obj_hashINS2_8key_dataEE10default_eqIS5_EE8iterator12move_to_usedEv(ptr noundef nonnull align 8 dereferenceable(16) %this) #5 comdat align 2 {
entry:
  %this.addr = alloca ptr, align 8
  store ptr %this, ptr %this.addr, align 8
  %this1 = load ptr, ptr %this.addr, align 8
  br label %while.cond

while.cond:                                       ; preds = %while.body, %entry
  %m_curr = getelementptr inbounds %"class.core_hashtable<obj_map<expr, unsigned int>::obj_map_entry, obj_hash<obj_map<expr, unsigned int>::key_data>, default_eq<obj_map<expr, unsigned int>::key_data>>::iterator", ptr %this1, i32 0, i32 0
  %0 = load ptr, ptr %m_curr, align 8
  %m_end = getelementptr inbounds %"class.core_hashtable<obj_map<expr, unsigned int>::obj_map_entry, obj_hash<obj_map<expr, unsigned int>::key_data>, default_eq<obj_map<expr, unsigned int>::key_data>>::iterator", ptr %this1, i32 0, i32 1
  %1 = load ptr, ptr %m_end, align 8
  %cmp = icmp ne ptr %0, %1
  br i1 %cmp, label %land.rhs, label %land.end

land.rhs:                                         ; preds = %while.cond
  %m_curr2 = getelementptr inbounds %"class.core_hashtable<obj_map<expr, unsigned int>::obj_map_entry, obj_hash<obj_map<expr, unsigned int>::key_data>, default_eq<obj_map<expr, unsigned int>::key_data>>::iterator", ptr %this1, i32 0, i32 0
  %2 = load ptr, ptr %m_curr2, align 8
  %call = call noundef zeroext i1 @_ZNK7obj_mapI4exprjE13obj_map_entry7is_usedEv(ptr noundef nonnull align 8 dereferenceable(16) %2)
  %lnot = xor i1 %call, true
  br label %land.end

land.end:                                         ; preds = %land.rhs, %while.cond
  %3 = phi i1 [ false, %while.cond ], [ %lnot, %land.rhs ]
  br i1 %3, label %while.body, label %while.end

while.body:                                       ; preds = %land.end
  %m_curr3 = getelementptr inbounds %"class.core_hashtable<obj_map<expr, unsigned int>::obj_map_entry, obj_hash<obj_map<expr, unsigned int>::key_data>, default_eq<obj_map<expr, unsigned int>::key_data>>::iterator", ptr %this1, i32 0, i32 0
  %4 = load ptr, ptr %m_curr3, align 8
  %incdec.ptr = getelementptr inbounds %"class.obj_map<expr, unsigned int>::obj_map_entry", ptr %4, i32 1
  store ptr %incdec.ptr, ptr %m_curr3, align 8
  br label %while.cond, !llvm.loop !36

while.end:                                        ; preds = %land.end
  ret void
}

; Function Attrs: mustprogress nounwind uwtable
define linkonce_odr hidden noundef nonnull align 8 dereferenceable(12) ptr @_ZN14core_hashtableIN7obj_mapI4exprjE13obj_map_entryE8obj_hashINS2_8key_dataEE10default_eqIS5_EE8iteratordeEv(ptr noundef nonnull align 8 dereferenceable(16) %this) #5 comdat align 2 {
entry:
  %this.addr = alloca ptr, align 8
  store ptr %this, ptr %this.addr, align 8
  %this1 = load ptr, ptr %this.addr, align 8
  %m_curr = getelementptr inbounds %"class.core_hashtable<obj_map<expr, unsigned int>::obj_map_entry, obj_hash<obj_map<expr, unsigned int>::key_data>, default_eq<obj_map<expr, unsigned int>::key_data>>::iterator", ptr %this1, i32 0, i32 0
  %0 = load ptr, ptr %m_curr, align 8
  %call = call noundef nonnull align 8 dereferenceable(12) ptr @_ZN7obj_mapI4exprjE13obj_map_entry8get_dataEv(ptr noundef nonnull align 8 dereferenceable(16) %0)
  ret ptr %call
}

; Function Attrs: mustprogress uwtable
define linkonce_odr hidden { ptr, ptr } @_ZNK14core_hashtableIN7obj_mapI4exprjE13obj_map_entryE8obj_hashINS2_8key_dataEE10default_eqIS5_EE3endEv(ptr noundef nonnull align 8 dereferenceable(20) %this) #4 comdat align 2 {
entry:
  %retval = alloca %"class.core_hashtable<obj_map<expr, unsigned int>::obj_map_entry, obj_hash<obj_map<expr, unsigned int>::key_data>, default_eq<obj_map<expr, unsigned int>::key_data>>::iterator", align 8
  %this.addr = alloca ptr, align 8
  store ptr %this, ptr %this.addr, align 8
  %this1 = load ptr, ptr %this.addr, align 8
  %m_table = getelementptr inbounds %class.core_hashtable, ptr %this1, i32 0, i32 0
  %0 = load ptr, ptr %m_table, align 8
  %m_capacity = getelementptr inbounds %class.core_hashtable, ptr %this1, i32 0, i32 1
  %1 = load i32, ptr %m_capacity, align 8
  %idx.ext = zext i32 %1 to i64
  %add.ptr = getelementptr inbounds %"class.obj_map<expr, unsigned int>::obj_map_entry", ptr %0, i64 %idx.ext
  %m_table2 = getelementptr inbounds %class.core_hashtable, ptr %this1, i32 0, i32 0
  %2 = load ptr, ptr %m_table2, align 8
  %m_capacity3 = getelementptr inbounds %class.core_hashtable, ptr %this1, i32 0, i32 1
  %3 = load i32, ptr %m_capacity3, align 8
  %idx.ext4 = zext i32 %3 to i64
  %add.ptr5 = getelementptr inbounds %"class.obj_map<expr, unsigned int>::obj_map_entry", ptr %2, i64 %idx.ext4
  call void @_ZN14core_hashtableIN7obj_mapI4exprjE13obj_map_entryE8obj_hashINS2_8key_dataEE10default_eqIS5_EE8iteratorC2EPS3_SB_(ptr noundef nonnull align 8 dereferenceable(16) %retval, ptr noundef %add.ptr, ptr noundef %add.ptr5)
  %4 = load { ptr, ptr }, ptr %retval, align 8
  ret { ptr, ptr } %4
}

; Function Attrs: mustprogress uwtable
define linkonce_odr hidden { ptr, ptr } @_ZNK14core_hashtableIN7obj_mapI4exprjE13obj_map_entryE8obj_hashINS2_8key_dataEE10default_eqIS5_EE5beginEv(ptr noundef nonnull align 8 dereferenceable(20) %this) #4 comdat align 2 {
entry:
  %retval = alloca %"class.core_hashtable<obj_map<expr, unsigned int>::obj_map_entry, obj_hash<obj_map<expr, unsigned int>::key_data>, default_eq<obj_map<expr, unsigned int>::key_data>>::iterator", align 8
  %this.addr = alloca ptr, align 8
  store ptr %this, ptr %this.addr, align 8
  %this1 = load ptr, ptr %this.addr, align 8
  %m_table = getelementptr inbounds %class.core_hashtable, ptr %this1, i32 0, i32 0
  %0 = load ptr, ptr %m_table, align 8
  %m_table2 = getelementptr inbounds %class.core_hashtable, ptr %this1, i32 0, i32 0
  %1 = load ptr, ptr %m_table2, align 8
  %m_capacity = getelementptr inbounds %class.core_hashtable, ptr %this1, i32 0, i32 1
  %2 = load i32, ptr %m_capacity, align 8
  %idx.ext = zext i32 %2 to i64
  %add.ptr = getelementptr inbounds %"class.obj_map<expr, unsigned int>::obj_map_entry", ptr %1, i64 %idx.ext
  call void @_ZN14core_hashtableIN7obj_mapI4exprjE13obj_map_entryE8obj_hashINS2_8key_dataEE10default_eqIS5_EE8iteratorC2EPS3_SB_(ptr noundef nonnull align 8 dereferenceable(16) %retval, ptr noundef %0, ptr noundef %add.ptr)
  %3 = load { ptr, ptr }, ptr %retval, align 8
  ret { ptr, ptr } %3
}

; Function Attrs: mustprogress nounwind uwtable
define linkonce_odr hidden noundef nonnull align 8 dereferenceable(16) ptr @_ZN14core_hashtableIN7obj_mapI4exprjE13obj_map_entryE8obj_hashINS2_8key_dataEE10default_eqIS5_EE8iteratorppEv(ptr noundef nonnull align 8 dereferenceable(16) %this) #5 comdat align 2 {
entry:
  %this.addr = alloca ptr, align 8
  store ptr %this, ptr %this.addr, align 8
  %this1 = load ptr, ptr %this.addr, align 8
  %m_curr = getelementptr inbounds %"class.core_hashtable<obj_map<expr, unsigned int>::obj_map_entry, obj_hash<obj_map<expr, unsigned int>::key_data>, default_eq<obj_map<expr, unsigned int>::key_data>>::iterator", ptr %this1, i32 0, i32 0
  %0 = load ptr, ptr %m_curr, align 8
  %incdec.ptr = getelementptr inbounds %"class.obj_map<expr, unsigned int>::obj_map_entry", ptr %0, i32 1
  store ptr %incdec.ptr, ptr %m_curr, align 8
  call void @_ZN14core_hashtableIN7obj_mapI4exprjE13obj_map_entryE8obj_hashINS2_8key_dataEE10default_eqIS5_EE8iterator12move_to_usedEv(ptr noundef nonnull align 8 dereferenceable(16) %this1)
  ret ptr %this1
}

; Function Attrs: mustprogress uwtable
define linkonce_odr hidden noundef ptr @_ZN14core_hashtableIN7obj_mapI4exprjE13obj_map_entryE8obj_hashINS2_8key_dataEE10default_eqIS5_EE8iteratorptEv(ptr noundef nonnull align 8 dereferenceable(16) %this) #4 comdat align 2 {
entry:
  %this.addr = alloca ptr, align 8
  store ptr %this, ptr %this.addr, align 8
  %this1 = load ptr, ptr %this.addr, align 8
  %call = call noundef nonnull align 8 dereferenceable(12) ptr @_ZN14core_hashtableIN7obj_mapI4exprjE13obj_map_entryE8obj_hashINS2_8key_dataEE10default_eqIS5_EE8iteratordeEv(ptr noundef nonnull align 8 dereferenceable(16) %this1)
  ret ptr %call
}

; Function Attrs: mustprogress nounwind uwtable
define linkonce_odr hidden noundef zeroext i1 @_ZNK14core_hashtableIN7obj_mapI4exprjE13obj_map_entryE8obj_hashINS2_8key_dataEE10default_eqIS5_EE8iteratorneERKSA_(ptr noundef nonnull align 8 dereferenceable(16) %this, ptr noundef nonnull align 8 dereferenceable(16) %it) #5 comdat align 2 {
entry:
  %this.addr = alloca ptr, align 8
  %it.addr = alloca ptr, align 8
  store ptr %this, ptr %this.addr, align 8
  store ptr %it, ptr %it.addr, align 8
  %this1 = load ptr, ptr %this.addr, align 8
  %m_curr = getelementptr inbounds %"class.core_hashtable<obj_map<expr, unsigned int>::obj_map_entry, obj_hash<obj_map<expr, unsigned int>::key_data>, default_eq<obj_map<expr, unsigned int>::key_data>>::iterator", ptr %this1, i32 0, i32 0
  %0 = load ptr, ptr %m_curr, align 8
  %1 = load ptr, ptr %it.addr, align 8
  %m_curr2 = getelementptr inbounds %"class.core_hashtable<obj_map<expr, unsigned int>::obj_map_entry, obj_hash<obj_map<expr, unsigned int>::key_data>, default_eq<obj_map<expr, unsigned int>::key_data>>::iterator", ptr %1, i32 0, i32 0
  %2 = load ptr, ptr %m_curr2, align 8
  %cmp = icmp ne ptr %0, %2
  ret i1 %cmp
}

; Function Attrs: mustprogress uwtable
define linkonce_odr hidden { ptr, ptr } @_ZNK7obj_mapI4exprjE3endEv(ptr noundef nonnull align 8 dereferenceable(24) %this) #4 comdat align 2 {
entry:
  %retval = alloca %"class.core_hashtable<obj_map<expr, unsigned int>::obj_map_entry, obj_hash<obj_map<expr, unsigned int>::key_data>, default_eq<obj_map<expr, unsigned int>::key_data>>::iterator", align 8
  %this.addr = alloca ptr, align 8
  store ptr %this, ptr %this.addr, align 8
  %this1 = load ptr, ptr %this.addr, align 8
  %m_table = getelementptr inbounds %class.obj_map, ptr %this1, i32 0, i32 0
  %call = call { ptr, ptr } @_ZNK14core_hashtableIN7obj_mapI4exprjE13obj_map_entryE8obj_hashINS2_8key_dataEE10default_eqIS5_EE3endEv(ptr noundef nonnull align 8 dereferenceable(20) %m_table)
  %0 = getelementptr inbounds { ptr, ptr }, ptr %retval, i32 0, i32 0
  %1 = extractvalue { ptr, ptr } %call, 0
  store ptr %1, ptr %0, align 8
  %2 = getelementptr inbounds { ptr, ptr }, ptr %retval, i32 0, i32 1
  %3 = extractvalue { ptr, ptr } %call, 1
  store ptr %3, ptr %2, align 8
  %4 = load { ptr, ptr }, ptr %retval, align 8
  ret { ptr, ptr } %4
}

; Function Attrs: mustprogress uwtable
define linkonce_odr hidden { ptr, ptr } @_ZNK7obj_mapI4exprjE5beginEv(ptr noundef nonnull align 8 dereferenceable(24) %this) #4 comdat align 2 {
entry:
  %retval = alloca %"class.core_hashtable<obj_map<expr, unsigned int>::obj_map_entry, obj_hash<obj_map<expr, unsigned int>::key_data>, default_eq<obj_map<expr, unsigned int>::key_data>>::iterator", align 8
  %this.addr = alloca ptr, align 8
  store ptr %this, ptr %this.addr, align 8
  %this1 = load ptr, ptr %this.addr, align 8
  %m_table = getelementptr inbounds %class.obj_map, ptr %this1, i32 0, i32 0
  %call = call { ptr, ptr } @_ZNK14core_hashtableIN7obj_mapI4exprjE13obj_map_entryE8obj_hashINS2_8key_dataEE10default_eqIS5_EE5beginEv(ptr noundef nonnull align 8 dereferenceable(20) %m_table)
  %0 = getelementptr inbounds { ptr, ptr }, ptr %retval, i32 0, i32 0
  %1 = extractvalue { ptr, ptr } %call, 0
  store ptr %1, ptr %0, align 8
  %2 = getelementptr inbounds { ptr, ptr }, ptr %retval, i32 0, i32 1
  %3 = extractvalue { ptr, ptr } %call, 1
  store ptr %3, ptr %2, align 8
  %4 = load { ptr, ptr }, ptr %retval, align 8
  ret { ptr, ptr } %4
}

; Function Attrs: mustprogress uwtable
define hidden void @_ZN6spacer16pred_transformer13legacy_frames14inherit_framesERS1_(ptr noundef nonnull align 8 dereferenceable(56) %this, ptr noundef nonnull align 8 dereferenceable(56) %other) #4 align 2 {
entry:
  %this.addr = alloca ptr, align 8
  %other.addr = alloca ptr, align 8
  %it = alloca %"class.core_hashtable<obj_map<expr, unsigned int>::obj_map_entry, obj_hash<obj_map<expr, unsigned int>::key_data>, default_eq<obj_map<expr, unsigned int>::key_data>>::iterator", align 8
  %end = alloca %"class.core_hashtable<obj_map<expr, unsigned int>::obj_map_entry, obj_hash<obj_map<expr, unsigned int>::key_data>, default_eq<obj_map<expr, unsigned int>::key_data>>::iterator", align 8
  store ptr %this, ptr %this.addr, align 8
  store ptr %other, ptr %other.addr, align 8
  %this1 = load ptr, ptr %this.addr, align 8
  %0 = load ptr, ptr %other.addr, align 8
  %m_prop2level = getelementptr inbounds %"class.spacer::pred_transformer::legacy_frames", ptr %0, i32 0, i32 2
  %call = call { ptr, ptr } @_ZNK7obj_mapI4exprjE5beginEv(ptr noundef nonnull align 8 dereferenceable(24) %m_prop2level)
  %1 = getelementptr inbounds { ptr, ptr }, ptr %it, i32 0, i32 0
  %2 = extractvalue { ptr, ptr } %call, 0
  store ptr %2, ptr %1, align 8
  %3 = getelementptr inbounds { ptr, ptr }, ptr %it, i32 0, i32 1
  %4 = extractvalue { ptr, ptr } %call, 1
  store ptr %4, ptr %3, align 8
  %5 = load ptr, ptr %other.addr, align 8
  %m_prop2level2 = getelementptr inbounds %"class.spacer::pred_transformer::legacy_frames", ptr %5, i32 0, i32 2
  %call3 = call { ptr, ptr } @_ZNK7obj_mapI4exprjE3endEv(ptr noundef nonnull align 8 dereferenceable(24) %m_prop2level2)
  %6 = getelementptr inbounds { ptr, ptr }, ptr %end, i32 0, i32 0
  %7 = extractvalue { ptr, ptr } %call3, 0
  store ptr %7, ptr %6, align 8
  %8 = getelementptr inbounds { ptr, ptr }, ptr %end, i32 0, i32 1
  %9 = extractvalue { ptr, ptr } %call3, 1
  store ptr %9, ptr %8, align 8
  br label %for.cond

for.cond:                                         ; preds = %for.inc, %entry
  %call4 = call noundef zeroext i1 @_ZNK14core_hashtableIN7obj_mapI4exprjE13obj_map_entryE8obj_hashINS2_8key_dataEE10default_eqIS5_EE8iteratorneERKSA_(ptr noundef nonnull align 8 dereferenceable(16) %it, ptr noundef nonnull align 8 dereferenceable(16) %end)
  br i1 %call4, label %for.body, label %for.end

for.body:                                         ; preds = %for.cond
  %call5 = call noundef ptr @_ZN14core_hashtableIN7obj_mapI4exprjE13obj_map_entryE8obj_hashINS2_8key_dataEE10default_eqIS5_EE8iteratorptEv(ptr noundef nonnull align 8 dereferenceable(16) %it)
  %m_key = getelementptr inbounds %"struct.obj_map<expr, unsigned int>::key_data", ptr %call5, i32 0, i32 0
  %10 = load ptr, ptr %m_key, align 8
  %call6 = call noundef ptr @_ZN14core_hashtableIN7obj_mapI4exprjE13obj_map_entryE8obj_hashINS2_8key_dataEE10default_eqIS5_EE8iteratorptEv(ptr noundef nonnull align 8 dereferenceable(16) %it)
  %m_value = getelementptr inbounds %"struct.obj_map<expr, unsigned int>::key_data", ptr %call6, i32 0, i32 1
  %11 = load i32, ptr %m_value, align 8
  %call7 = call noundef zeroext i1 @_ZN6spacer16pred_transformer13legacy_frames9add_lemmaEP4exprj(ptr noundef nonnull align 8 dereferenceable(56) %this1, ptr noundef %10, i32 noundef %11)
  br label %for.inc

for.inc:                                          ; preds = %for.body
  %call8 = call noundef nonnull align 8 dereferenceable(16) ptr @_ZN14core_hashtableIN7obj_mapI4exprjE13obj_map_entryE8obj_hashINS2_8key_dataEE10default_eqIS5_EE8iteratorppEv(ptr noundef nonnull align 8 dereferenceable(16) %it)
  br label %for.cond, !llvm.loop !13

for.end:                                          ; preds = %for.cond
  ret void
}