; Function Attrs: mustprogress uwtable
define hidden void @_ZN6spacer16pred_transformer13legacy_frames14inherit_framesERS1_(ptr noundef nonnull align 8 dereferenceable(56) %this, ptr nocapture noundef nonnull readonly align 8 dereferenceable(56) %other) local_unnamed_addr #3 align 2 {
entry:
  %m_prop2level = getelementptr inbounds i8, ptr %other, i64 16
  %0 = load ptr, ptr %m_prop2level, align 8
  %m_capacity.i.i = getelementptr inbounds i8, ptr %other, i64 24
  %1 = load i32, ptr %m_capacity.i.i, align 8
  %idx.ext.i.i = zext i32 %1 to i64
  %add.ptr.i.i = getelementptr inbounds %"class.obj_map<expr, unsigned int>::obj_map_entry", ptr %0, i64 %idx.ext.i.i
  %cmp.not2.i.i.i.i = icmp eq i32 %1, 0
  br i1 %cmp.not2.i.i.i.i, label %_ZNK7obj_mapI4exprjE5beginEv.exit, label %land.rhs.i.i.i.i

land.rhs.i.i.i.i:                                 ; preds = %entry, %while.body.i.i.i.i
  %retval.sroa.0.0.i.i = phi ptr [ %incdec.ptr.i.i.i.i, %while.body.i.i.i.i ], [ %0, %entry ]
  %2 = load ptr, ptr %retval.sroa.0.0.i.i, align 8
  %switch.i.i.i.i = icmp ult ptr %2, inttoptr (i64 2 to ptr)
  br i1 %switch.i.i.i.i, label %while.body.i.i.i.i, label %_ZNK7obj_mapI4exprjE5beginEv.exit

while.body.i.i.i.i:                               ; preds = %land.rhs.i.i.i.i
  %incdec.ptr.i.i.i.i = getelementptr inbounds i8, ptr %retval.sroa.0.0.i.i, i64 16
  %cmp.not.i.i.i.i = icmp eq ptr %incdec.ptr.i.i.i.i, %add.ptr.i.i
  br i1 %cmp.not.i.i.i.i, label %for.end, label %land.rhs.i.i.i.i, !llvm.loop !25

_ZNK7obj_mapI4exprjE5beginEv.exit:                ; preds = %land.rhs.i.i.i.i, %entry
  %retval.sroa.0.1.i.i = phi ptr [ %0, %entry ], [ %retval.sroa.0.0.i.i, %land.rhs.i.i.i.i ]
  %cmp.i.not10 = icmp eq ptr %retval.sroa.0.1.i.i, %add.ptr.i.i
  br i1 %cmp.i.not10, label %for.end, label %for.body

for.body:                                         ; preds = %_ZNK7obj_mapI4exprjE5beginEv.exit, %_ZN14core_hashtableIN7obj_mapI4exprjE13obj_map_entryE8obj_hashINS2_8key_dataEE10default_eqIS5_EE8iteratorppEv.exit
  %it.sroa.0.011 = phi ptr [ %it.sroa.0.1, %_ZN14core_hashtableIN7obj_mapI4exprjE13obj_map_entryE8obj_hashINS2_8key_dataEE10default_eqIS5_EE8iteratorppEv.exit ], [ %retval.sroa.0.1.i.i, %_ZNK7obj_mapI4exprjE5beginEv.exit ]
  %3 = load ptr, ptr %it.sroa.0.011, align 8
  %m_value = getelementptr inbounds i8, ptr %it.sroa.0.011, i64 8
  %4 = load i32, ptr %m_value, align 8
  %call7 = tail call noundef zeroext i1 @_ZN6spacer16pred_transformer13legacy_frames9add_lemmaEP4exprj(ptr noundef nonnull align 8 dereferenceable(56) %this, ptr noundef %3, i32 noundef %4)
  %incdec.ptr.i = getelementptr inbounds i8, ptr %it.sroa.0.011, i64 16
  %cmp.not2.i.i = icmp eq ptr %incdec.ptr.i, %add.ptr.i.i
  br i1 %cmp.not2.i.i, label %for.end, label %land.rhs.i.i

land.rhs.i.i:                                     ; preds = %for.body, %while.body.i.i
  %it.sroa.0.1 = phi ptr [ %incdec.ptr.i.i, %while.body.i.i ], [ %incdec.ptr.i, %for.body ]
  %5 = load ptr, ptr %it.sroa.0.1, align 8
  %switch.i.i = icmp ult ptr %5, inttoptr (i64 2 to ptr)
  br i1 %switch.i.i, label %while.body.i.i, label %_ZN14core_hashtableIN7obj_mapI4exprjE13obj_map_entryE8obj_hashINS2_8key_dataEE10default_eqIS5_EE8iteratorppEv.exit

while.body.i.i:                                   ; preds = %land.rhs.i.i
  %incdec.ptr.i.i = getelementptr inbounds i8, ptr %it.sroa.0.1, i64 16
  %cmp.not.i.i = icmp eq ptr %incdec.ptr.i.i, %add.ptr.i.i
  br i1 %cmp.not.i.i, label %for.end, label %land.rhs.i.i, !llvm.loop !25

_ZN14core_hashtableIN7obj_mapI4exprjE13obj_map_entryE8obj_hashINS2_8key_dataEE10default_eqIS5_EE8iteratorppEv.exit: ; preds = %land.rhs.i.i
  %cmp.i.not = icmp eq ptr %it.sroa.0.1, %add.ptr.i.i
  br i1 %cmp.i.not, label %for.end, label %for.body, !llvm.loop !26

for.end:                                          ; preds = %while.body.i.i.i.i, %for.body, %_ZN14core_hashtableIN7obj_mapI4exprjE13obj_map_entryE8obj_hashINS2_8key_dataEE10default_eqIS5_EE8iteratorppEv.exit, %while.body.i.i, %_ZNK7obj_mapI4exprjE5beginEv.exit
  ret void
}